target datalayout = "e-m:e-p270:32:32-p271:32:32-p272:64:64-i64:64-i128:128-f80:128-n8:16:32:64-S128"
target triple = "x86_64-pc-linux-gnu"

%struct.AVFilterContext = type { ptr, ptr, ptr, ptr, ptr, i32, ptr, ptr, i32, ptr, ptr, i32, i32, ptr, ptr, ptr, ptr, i32, ptr, i32, i32 }
%struct.AudioAPContext = type { ptr, i32, i32, float, float, i32, i32, i32, ptr, ptr, ptr, ptr, ptr, ptr, ptr, ptr, ptr, ptr, ptr, ptr, ptr, [2 x ptr], ptr, ptr }

; Function Attrs: cold nounwind optsize uwtable
define internal void @uninit(ptr noundef %0) #0 {
  %2 = alloca ptr, align 8
  %3 = alloca ptr, align 8
  store ptr %0, ptr %2, align 8, !tbaa !4
  call void @llvm.lifetime.start.p0(i64 8, ptr %3) #8
  %4 = load ptr, ptr %2, align 8, !tbaa !4
  %5 = getelementptr inbounds nuw %struct.AVFilterContext, ptr %4, i32 0, i32 9
  %6 = load ptr, ptr %5, align 8, !tbaa !9
  store ptr %6, ptr %3, align 8, !tbaa !22
  %7 = load ptr, ptr %3, align 8, !tbaa !22
  %8 = getelementptr inbounds nuw %struct.AudioAPContext, ptr %7, i32 0, i32 23
  call void @av_freep(ptr noundef %8)
  %9 = load ptr, ptr %3, align 8, !tbaa !22
  %10 = getelementptr inbounds nuw %struct.AudioAPContext, ptr %9, i32 0, i32 8
  call void @av_frame_free(ptr noundef %10)
  %11 = load ptr, ptr %3, align 8, !tbaa !22
  %12 = getelementptr inbounds nuw %struct.AudioAPContext, ptr %11, i32 0, i32 9
  call void @av_frame_free(ptr noundef %12)
  %13 = load ptr, ptr %3, align 8, !tbaa !22
  %14 = getelementptr inbounds nuw %struct.AudioAPContext, ptr %13, i32 0, i32 15
  call void @av_frame_free(ptr noundef %14)
  %15 = load ptr, ptr %3, align 8, !tbaa !22
  %16 = getelementptr inbounds nuw %struct.AudioAPContext, ptr %15, i32 0, i32 10
  call void @av_frame_free(ptr noundef %16)
  %17 = load ptr, ptr %3, align 8, !tbaa !22
  %18 = getelementptr inbounds nuw %struct.AudioAPContext, ptr %17, i32 0, i32 11
  call void @av_frame_free(ptr noundef %18)
  %19 = load ptr, ptr %3, align 8, !tbaa !22
  %20 = getelementptr inbounds nuw %struct.AudioAPContext, ptr %19, i32 0, i32 12
  call void @av_frame_free(ptr noundef %20)
  %21 = load ptr, ptr %3, align 8, !tbaa !22
  %22 = getelementptr inbounds nuw %struct.AudioAPContext, ptr %21, i32 0, i32 14
  call void @av_frame_free(ptr noundef %22)
  %23 = load ptr, ptr %3, align 8, !tbaa !22
  %24 = getelementptr inbounds nuw %struct.AudioAPContext, ptr %23, i32 0, i32 13
  call void @av_frame_free(ptr noundef %24)
  %25 = load ptr, ptr %3, align 8, !tbaa !22
  %26 = getelementptr inbounds nuw %struct.AudioAPContext, ptr %25, i32 0, i32 16
  call void @av_frame_free(ptr noundef %26)
  %27 = load ptr, ptr %3, align 8, !tbaa !22
  %28 = getelementptr inbounds nuw %struct.AudioAPContext, ptr %27, i32 0, i32 17
  call void @av_frame_free(ptr noundef %28)
  %29 = load ptr, ptr %3, align 8, !tbaa !22
  %30 = getelementptr inbounds nuw %struct.AudioAPContext, ptr %29, i32 0, i32 18
  call void @av_frame_free(ptr noundef %30)
  %31 = load ptr, ptr %3, align 8, !tbaa !22
  %32 = getelementptr inbounds nuw %struct.AudioAPContext, ptr %31, i32 0, i32 19
  call void @av_freep(ptr noundef %32)
  %33 = load ptr, ptr %3, align 8, !tbaa !22
  %34 = getelementptr inbounds nuw %struct.AudioAPContext, ptr %33, i32 0, i32 20
  call void @av_freep(ptr noundef %34)
  call void @llvm.lifetime.end.p0(i64 8, ptr %3) #8
  ret void
}